target datalayout = "e-m:e-p270:32:32-p271:32:32-p272:64:64-i64:64-i128:128-f80:128-n8:16:32:64-S128"
target triple = "x86_64-pc-linux-gnu"

%struct.rb_data_type_struct = type { ptr, %struct.anon.2, ptr, ptr, i64 }
%struct.anon.2 = type { ptr, ptr, ptr, ptr, [1 x ptr] }
%struct.zstream = type { i64, i64, i64, i64, %struct.z_stream_s, ptr }
%struct.z_stream_s = type { ptr, i32, i64, ptr, i32, i64, ptr, ptr, ptr, ptr, ptr, i32, i64, i64 }
%struct.gzfile = type { %struct.zstream, i64, i32, i32, i64, i64, i64, i64, i32, i32, i64, ptr, ptr, ptr, ptr, i64, i64 }
%struct.RString = type { %struct.RBasic, i64, %union.anon }
%struct.RBasic = type { i64, i64 }
%union.anon = type { %struct.anon }
%struct.anon = type { ptr, %union.anon.0 }
%union.anon.0 = type { i64 }

@cGzError = internal global i64 0, align 8
@gzfile_data_type = internal constant %struct.rb_data_type_struct { ptr @.str.163, %struct.anon.2 { ptr @gzfile_mark, ptr @gzfile_free, ptr @gzfile_memsize, ptr null, [1 x ptr] zeroinitializer }, ptr null, ptr null, i64 1 }, align 8
@.str.165 = private unnamed_addr constant [19 x i8] c"closed gzip stream\00", align 1

; Function Attrs: inlinehint nounwind sspstrong willreturn memory(read) uwtable
define internal i64 @RSTRING_LEN(i64 noundef %0) #6 {
  %2 = alloca i64, align 8
  store i64 %0, ptr %2, align 8, !tbaa !6
  %3 = load i64, ptr %2, align 8, !tbaa !6
  %4 = inttoptr i64 %3 to ptr
  %5 = getelementptr inbounds nuw %struct.RString, ptr %4, i32 0, i32 1
  %6 = load i64, ptr %5, align 8, !tbaa !88
  ret i64 %6
}

; Function Attrs: inlinehint nounwind sspstrong willreturn memory(none) uwtable
define internal zeroext i1 @RB_NIL_P(i64 noundef %0) #5 {
  %2 = alloca i64, align 8
  store i64 %0, ptr %2, align 8, !tbaa !6
  %3 = load i64, ptr %2, align 8, !tbaa !6
  %4 = icmp eq i64 %3, 4
  ret i1 %4
}

; Function Attrs: nounwind sspstrong uwtable
define internal ptr @get_gzfile(i64 noundef %0) #0 {
  %2 = alloca i64, align 8
  %3 = alloca ptr, align 8
  store i64 %0, ptr %2, align 8, !tbaa !6
  call void @llvm.lifetime.start.p0(i64 8, ptr %3) #23
  %4 = load i64, ptr %2, align 8, !tbaa !6
  %5 = call ptr @rb_check_typeddata(i64 noundef %4, ptr noundef @gzfile_data_type)
  store ptr %5, ptr %3, align 8, !tbaa !57
  %6 = load ptr, ptr %3, align 8, !tbaa !57
  %7 = getelementptr inbounds nuw %struct.gzfile, ptr %6, i32 0, i32 0
  %8 = getelementptr inbounds nuw %struct.zstream, ptr %7, i32 0, i32 0
  %9 = load i64, ptr %8, align 8, !tbaa !59
  %10 = and i64 %9, 1
  %11 = icmp ne i64 %10, 0
  br i1 %11, label %14, label %12

12:                                               ; preds = %1
  %13 = load i64, ptr @cGzError, align 8, !tbaa !6
  call void (i64, ptr, ...) @rb_raise(i64 noundef %13, ptr noundef @.str.165) #26
  unreachable

14:                                               ; preds = %1
  %15 = load ptr, ptr %3, align 8, !tbaa !57
  call void @llvm.lifetime.end.p0(i64 8, ptr %3) #23
  ret ptr %15
}

; Function Attrs: nounwind sspstrong uwtable
define internal i64 @rb_gzfile_eof_p(i64 noundef %0) #0 {
  %2 = alloca i64, align 8
  %3 = alloca ptr, align 8
  store i64 %0, ptr %2, align 8, !tbaa !6
  call void @llvm.lifetime.start.p0(i64 8, ptr %3) #23
  %4 = load i64, ptr %2, align 8, !tbaa !6
  %5 = call ptr @get_gzfile(i64 noundef %4)
  store ptr %5, ptr %3, align 8, !tbaa !57
  br label %6

6:                                                ; preds = %31, %1
  %7 = load ptr, ptr %3, align 8, !tbaa !57
  %8 = getelementptr inbounds nuw %struct.gzfile, ptr %7, i32 0, i32 0
  %9 = getelementptr inbounds nuw %struct.zstream, ptr %8, i32 0, i32 0
  %10 = load i64, ptr %9, align 8, !tbaa !59
  %11 = and i64 %10, 4
  %12 = icmp ne i64 %11, 0
  br i1 %12, label %29, label %13

13:                                               ; preds = %6
  %14 = load ptr, ptr %3, align 8, !tbaa !57
  %15 = getelementptr inbounds nuw %struct.gzfile, ptr %14, i32 0, i32 0
  %16 = getelementptr inbounds nuw %struct.zstream, ptr %15, i32 0, i32 1
  %17 = load i64, ptr %16, align 8, !tbaa !60
  %18 = call zeroext i1 @RB_NIL_P(i64 noundef %17) #24
  br i1 %18, label %19, label %20

19:                                               ; preds = %13
  br label %26

20:                                               ; preds = %13
  %21 = load ptr, ptr %3, align 8, !tbaa !57
  %22 = getelementptr inbounds nuw %struct.gzfile, ptr %21, i32 0, i32 0
  %23 = getelementptr inbounds nuw %struct.zstream, ptr %22, i32 0, i32 1
  %24 = load i64, ptr %23, align 8, !tbaa !60
  %25 = call i64 @RSTRING_LEN(i64 noundef %24) #25
  br label %26

26:                                               ; preds = %20, %19
  %27 = phi i64 [ 0, %19 ], [ %25, %20 ]
  %28 = icmp eq i64 %27, 0
  br label %29

29:                                               ; preds = %26, %6
  %30 = phi i1 [ false, %6 ], [ %28, %26 ]
  br i1 %30, label %31, label %34

31:                                               ; preds = %29
  %32 = load ptr, ptr %3, align 8, !tbaa !57
  %33 = call i64 @gzfile_read_more(ptr noundef %32, i64 noundef 4)
  br label %6, !llvm.loop !61

34:                                               ; preds = %29
  %35 = load ptr, ptr %3, align 8, !tbaa !57
  %36 = getelementptr inbounds nuw %struct.gzfile, ptr %35, i32 0, i32 0
  %37 = getelementptr inbounds nuw %struct.zstream, ptr %36, i32 0, i32 0
  %38 = load i64, ptr %37, align 8, !tbaa !59
  %39 = and i64 %38, 4
  %40 = icmp ne i64 %39, 0
  br i1 %40, label %41, label %57

41:                                               ; preds = %34
  %42 = load ptr, ptr %3, align 8, !tbaa !57
  %43 = getelementptr inbounds nuw %struct.gzfile, ptr %42, i32 0, i32 0
  %44 = getelementptr inbounds nuw %struct.zstream, ptr %43, i32 0, i32 1
  %45 = load i64, ptr %44, align 8, !tbaa !60
  %46 = call zeroext i1 @RB_NIL_P(i64 noundef %45) #24
  br i1 %46, label %47, label %48

47:                                               ; preds = %41
  br label %54

48:                                               ; preds = %41
  %49 = load ptr, ptr %3, align 8, !tbaa !57
  %50 = getelementptr inbounds nuw %struct.gzfile, ptr %49, i32 0, i32 0
  %51 = getelementptr inbounds nuw %struct.zstream, ptr %50, i32 0, i32 1
  %52 = load i64, ptr %51, align 8, !tbaa !60
  %53 = call i64 @RSTRING_LEN(i64 noundef %52) #25
  br label %54

54:                                               ; preds = %48, %47
  %55 = phi i64 [ 0, %47 ], [ %53, %48 ]
  %56 = icmp eq i64 %55, 0
  br label %57

57:                                               ; preds = %54, %34
  %58 = phi i1 [ false, %34 ], [ %56, %54 ]
  %59 = select i1 %58, i64 20, i64 0
  call void @llvm.lifetime.end.p0(i64 8, ptr %3) #23
  ret i64 %59
}