; Function Attrs: nounwind sspstrong uwtable
define internal range(i64 0, 21) i64 @rb_gzfile_eof_p(i64 noundef %0) #0 {
  %2 = tail call ptr @rb_check_typeddata(i64 noundef %0, ptr noundef nonnull @gzfile_data_type) #18
  %3 = load i64, ptr %2, align 8, !tbaa !113
  %4 = and i64 %3, 1
  %.not.i = icmp eq i64 %4, 0
  br i1 %.not.i, label %7, label %get_gzfile.exit.preheader

get_gzfile.exit.preheader:                        ; preds = %1
  %5 = and i64 %3, 4
  %.not10 = icmp eq i64 %5, 0
  br i1 %.not10, label %.lr.ph, label %.critedge

.lr.ph:                                           ; preds = %get_gzfile.exit.preheader
  %6 = getelementptr inbounds nuw i8, ptr %2, i64 8
  br label %9

7:                                                ; preds = %1
  %8 = load i64, ptr @cGzError, align 8, !tbaa !6
  tail call void (i64, ptr, ...) @rb_raise(i64 noundef %8, ptr noundef nonnull @.str.165) #19
  unreachable

9:                                                ; preds = %.lr.ph, %.critedge9
  %10 = load i64, ptr %6, align 8, !tbaa !132
  %11 = icmp eq i64 %10, 4
  br i1 %11, label %.critedge9, label %12

12:                                               ; preds = %9
  %13 = inttoptr i64 %10 to ptr
  %14 = getelementptr inbounds nuw i8, ptr %13, i64 16
  %15 = load i64, ptr %14, align 8, !tbaa !21
  %16 = icmp eq i64 %15, 0
  br i1 %16, label %.critedge9, label %.critedge.thread

.critedge9:                                       ; preds = %9, %12
  tail call fastcc void @gzfile_read_more(ptr noundef nonnull %2, i64 noundef 4)
  %17 = load i64, ptr %2, align 8, !tbaa !113
  %18 = and i64 %17, 4
  %.not = icmp eq i64 %18, 0
  br i1 %.not, label %9, label %.critedge, !llvm.loop !133

.critedge:                                        ; preds = %.critedge9, %get_gzfile.exit.preheader
  %19 = getelementptr inbounds nuw i8, ptr %2, i64 8
  %20 = load i64, ptr %19, align 8, !tbaa !132
  %21 = icmp eq i64 %20, 4
  br i1 %21, label %.critedge.thread, label %22

22:                                               ; preds = %.critedge
  %23 = inttoptr i64 %20 to ptr
  %24 = getelementptr inbounds nuw i8, ptr %23, i64 16
  %25 = load i64, ptr %24, align 8, !tbaa !21
  %26 = icmp eq i64 %25, 0
  %27 = select i1 %26, i64 20, i64 0
  br label %.critedge.thread

.critedge.thread:                                 ; preds = %12, %22, %.critedge
  %28 = phi i64 [ %27, %22 ], [ 20, %.critedge ], [ 0, %12 ]
  ret i64 %28
}